
_test:     file format elf32-i386


Disassembly of section .text:

00000000 <main>:
    exit();
}

int
main(int argc, char *argv[])
{
   0:	8d 4c 24 04          	lea    0x4(%esp),%ecx
   4:	83 e4 f0             	and    $0xfffffff0,%esp
   7:	ff 71 fc             	pushl  -0x4(%ecx)
   a:	55                   	push   %ebp
   b:	89 e5                	mov    %esp,%ebp
   d:	51                   	push   %ecx
   e:	83 ec 04             	sub    $0x4,%esp
   // test_pmalloc();
    test_swapping();
  11:	e8 ca 00 00 00       	call   e0 <test_swapping>
  16:	66 90                	xchg   %ax,%ax
  18:	66 90                	xchg   %ax,%ax
  1a:	66 90                	xchg   %ax,%ax
  1c:	66 90                	xchg   %ax,%ax
  1e:	66 90                	xchg   %ax,%ax

00000020 <test_pmalloc>:
void test_pmalloc(){
  20:	55                   	push   %ebp
  21:	89 e5                	mov    %esp,%ebp
  23:	57                   	push   %edi
  24:	56                   	push   %esi
  25:	53                   	push   %ebx
  26:	83 ec 4c             	sub    $0x4c,%esp
    int pid = fork();
  29:	e8 3c 03 00 00       	call   36a <fork>
    if(pid == 0){
  2e:	85 c0                	test   %eax,%eax
  30:	0f 85 a0 00 00 00    	jne    d6 <test_pmalloc+0xb6>
  36:	89 c3                	mov    %eax,%ebx
  38:	89 65 b0             	mov    %esp,-0x50(%ebp)
        for(int i=0; i < n; i++){
  3b:	31 f6                	xor    %esi,%esi
            void* addr1 = pmalloc();
  3d:	e8 de 07 00 00       	call   820 <pmalloc>
            void* addr2 = malloc(10);
  42:	83 ec 0c             	sub    $0xc,%esp
            void* addr1 = pmalloc();
  45:	89 45 b4             	mov    %eax,-0x4c(%ebp)
            void* addr2 = malloc(10);
  48:	6a 0a                	push   $0xa
  4a:	e8 d1 06 00 00       	call   720 <malloc>
            pmalloc_add[i] = addr1;
  4f:	8b 55 b4             	mov    -0x4c(%ebp),%edx
            printf(1, "pmalloc adress = %d\n", pmalloc_add[i]);
  52:	83 c4 0c             	add    $0xc,%esp
            malloc_add[i] = addr2;
  55:	89 44 b5 d4          	mov    %eax,-0x2c(%ebp,%esi,4)
            void* addr2 = malloc(10);
  59:	89 c7                	mov    %eax,%edi
            pmalloc_add[i] = addr1;
  5b:	89 54 b5 c0          	mov    %edx,-0x40(%ebp,%esi,4)
            printf(1, "pmalloc adress = %d\n", pmalloc_add[i]);
  5f:	52                   	push   %edx
        for(int i=0; i < n; i++){
  60:	83 c6 01             	add    $0x1,%esi
            printf(1, "pmalloc adress = %d\n", pmalloc_add[i]);
  63:	68 50 09 00 00       	push   $0x950
  68:	6a 01                	push   $0x1
  6a:	e8 51 04 00 00       	call   4c0 <printf>
            printf(1, "malloc adress = %d\n", malloc_add[i]);
  6f:	83 c4 0c             	add    $0xc,%esp
  72:	57                   	push   %edi
  73:	68 51 09 00 00       	push   $0x951
  78:	6a 01                	push   $0x1
  7a:	e8 41 04 00 00       	call   4c0 <printf>
        for(int i=0; i < n; i++){
  7f:	83 c4 10             	add    $0x10,%esp
  82:	83 fe 05             	cmp    $0x5,%esi
  85:	75 b6                	jne    3d <test_pmalloc+0x1d>
  87:	89 f6                	mov    %esi,%esi
  89:	8d bc 27 00 00 00 00 	lea    0x0(%edi,%eiz,1),%edi
            printf(1, "pfree adress = %d\n", pmalloc_add[i]);
  90:	8b 7c 9d c0          	mov    -0x40(%ebp,%ebx,4),%edi
  94:	83 ec 04             	sub    $0x4,%esp
  97:	57                   	push   %edi
  98:	68 65 09 00 00       	push   $0x965
  9d:	6a 01                	push   $0x1
  9f:	e8 1c 04 00 00       	call   4c0 <printf>
            printf(1, "free adress = %d\n", malloc_add[i]);
  a4:	8b 74 9d d4          	mov    -0x2c(%ebp,%ebx,4),%esi
  a8:	83 c4 0c             	add    $0xc,%esp
        for(int i=0; i < 16; i++){
  ab:	83 c3 01             	add    $0x1,%ebx
            printf(1, "free adress = %d\n", malloc_add[i]);
  ae:	56                   	push   %esi
  af:	68 66 09 00 00       	push   $0x966
  b4:	6a 01                	push   $0x1
  b6:	e8 05 04 00 00       	call   4c0 <printf>
            pfree(pmalloc_add[i]);
  bb:	89 3c 24             	mov    %edi,(%esp)
  be:	e8 4d 08 00 00       	call   910 <pfree>
            free(malloc_add[i]);
  c3:	89 34 24             	mov    %esi,(%esp)
  c6:	e8 c5 05 00 00       	call   690 <free>
        for(int i=0; i < 16; i++){
  cb:	83 c4 10             	add    $0x10,%esp
  ce:	83 fb 10             	cmp    $0x10,%ebx
  d1:	75 bd                	jne    90 <test_pmalloc+0x70>
  d3:	8b 65 b0             	mov    -0x50(%ebp),%esp
    wait();
  d6:	e8 9f 02 00 00       	call   37a <wait>
    exit();
  db:	e8 92 02 00 00       	call   372 <exit>

000000e0 <test_swapping>:
void test_swapping(){
  e0:	55                   	push   %ebp
  e1:	89 e5                	mov    %esp,%ebp
  e3:	53                   	push   %ebx
  e4:	83 ec 04             	sub    $0x4,%esp
    int pid = fork();
  e7:	e8 7e 02 00 00       	call   36a <fork>
    if(pid != 0){
  ec:	85 c0                	test   %eax,%eax
  ee:	74 1d                	je     10d <test_swapping+0x2d>
  f0:	bb 12 00 00 00       	mov    $0x12,%ebx
  f5:	8d 76 00             	lea    0x0(%esi),%esi
             pmalloc(4096);
  f8:	83 ec 0c             	sub    $0xc,%esp
  fb:	68 00 10 00 00       	push   $0x1000
 100:	e8 1b 07 00 00       	call   820 <pmalloc>
        while(i<n){
 105:	83 c4 10             	add    $0x10,%esp
 108:	83 eb 01             	sub    $0x1,%ebx
 10b:	75 eb                	jne    f8 <test_swapping+0x18>
    wait();
 10d:	e8 68 02 00 00       	call   37a <wait>
    exit();
 112:	e8 5b 02 00 00       	call   372 <exit>
 117:	66 90                	xchg   %ax,%ax
 119:	66 90                	xchg   %ax,%ax
 11b:	66 90                	xchg   %ax,%ax
 11d:	66 90                	xchg   %ax,%ax
 11f:	90                   	nop

00000120 <strcpy>:
#include "user.h"
#include "x86.h"

char*
strcpy(char *s, char *t)
{
 120:	55                   	push   %ebp
 121:	89 e5                	mov    %esp,%ebp
 123:	53                   	push   %ebx
 124:	8b 45 08             	mov    0x8(%ebp),%eax
 127:	8b 4d 0c             	mov    0xc(%ebp),%ecx
  char *os;

  os = s;
  while((*s++ = *t++) != 0)
 12a:	89 c2                	mov    %eax,%edx
 12c:	8d 74 26 00          	lea    0x0(%esi,%eiz,1),%esi
 130:	83 c1 01             	add    $0x1,%ecx
 133:	0f b6 59 ff          	movzbl -0x1(%ecx),%ebx
 137:	83 c2 01             	add    $0x1,%edx
 13a:	84 db                	test   %bl,%bl
 13c:	88 5a ff             	mov    %bl,-0x1(%edx)
 13f:	75 ef                	jne    130 <strcpy+0x10>
    ;
  return os;
}
 141:	5b                   	pop    %ebx
 142:	5d                   	pop    %ebp
 143:	c3                   	ret    
 144:	8d b6 00 00 00 00    	lea    0x0(%esi),%esi
 14a:	8d bf 00 00 00 00    	lea    0x0(%edi),%edi

00000150 <strcmp>:

int
strcmp(const char *p, const char *q)
{
 150:	55                   	push   %ebp
 151:	89 e5                	mov    %esp,%ebp
 153:	53                   	push   %ebx
 154:	8b 55 08             	mov    0x8(%ebp),%edx
 157:	8b 4d 0c             	mov    0xc(%ebp),%ecx
  while(*p && *p == *q)
 15a:	0f b6 02             	movzbl (%edx),%eax
 15d:	0f b6 19             	movzbl (%ecx),%ebx
 160:	84 c0                	test   %al,%al
 162:	75 1c                	jne    180 <strcmp+0x30>
 164:	eb 2a                	jmp    190 <strcmp+0x40>
 166:	8d 76 00             	lea    0x0(%esi),%esi
 169:	8d bc 27 00 00 00 00 	lea    0x0(%edi,%eiz,1),%edi
    p++, q++;
 170:	83 c2 01             	add    $0x1,%edx
  while(*p && *p == *q)
 173:	0f b6 02             	movzbl (%edx),%eax
    p++, q++;
 176:	83 c1 01             	add    $0x1,%ecx
 179:	0f b6 19             	movzbl (%ecx),%ebx
  while(*p && *p == *q)
 17c:	84 c0                	test   %al,%al
 17e:	74 10                	je     190 <strcmp+0x40>
 180:	38 d8                	cmp    %bl,%al
 182:	74 ec                	je     170 <strcmp+0x20>
  return (uchar)*p - (uchar)*q;
 184:	29 d8                	sub    %ebx,%eax
}
 186:	5b                   	pop    %ebx
 187:	5d                   	pop    %ebp
 188:	c3                   	ret    
 189:	8d b4 26 00 00 00 00 	lea    0x0(%esi,%eiz,1),%esi
 190:	31 c0                	xor    %eax,%eax
  return (uchar)*p - (uchar)*q;
 192:	29 d8                	sub    %ebx,%eax
}
 194:	5b                   	pop    %ebx
 195:	5d                   	pop    %ebp
 196:	c3                   	ret    
 197:	89 f6                	mov    %esi,%esi
 199:	8d bc 27 00 00 00 00 	lea    0x0(%edi,%eiz,1),%edi

000001a0 <strlen>:

uint
strlen(char *s)
{
 1a0:	55                   	push   %ebp
 1a1:	89 e5                	mov    %esp,%ebp
 1a3:	8b 4d 08             	mov    0x8(%ebp),%ecx
  int n;

  for(n = 0; s[n]; n++)
 1a6:	80 39 00             	cmpb   $0x0,(%ecx)
 1a9:	74 15                	je     1c0 <strlen+0x20>
 1ab:	31 d2                	xor    %edx,%edx
 1ad:	8d 76 00             	lea    0x0(%esi),%esi
 1b0:	83 c2 01             	add    $0x1,%edx
 1b3:	80 3c 11 00          	cmpb   $0x0,(%ecx,%edx,1)
 1b7:	89 d0                	mov    %edx,%eax
 1b9:	75 f5                	jne    1b0 <strlen+0x10>
    ;
  return n;
}
 1bb:	5d                   	pop    %ebp
 1bc:	c3                   	ret    
 1bd:	8d 76 00             	lea    0x0(%esi),%esi
  for(n = 0; s[n]; n++)
 1c0:	31 c0                	xor    %eax,%eax
}
 1c2:	5d                   	pop    %ebp
 1c3:	c3                   	ret    
 1c4:	8d b6 00 00 00 00    	lea    0x0(%esi),%esi
 1ca:	8d bf 00 00 00 00    	lea    0x0(%edi),%edi

000001d0 <memset>:

void*
memset(void *dst, int c, uint n)
{
 1d0:	55                   	push   %ebp
 1d1:	89 e5                	mov    %esp,%ebp
 1d3:	57                   	push   %edi
 1d4:	8b 55 08             	mov    0x8(%ebp),%edx
}

static inline void
stosb(void *addr, int data, int cnt)
{
  asm volatile("cld; rep stosb" :
 1d7:	8b 4d 10             	mov    0x10(%ebp),%ecx
 1da:	8b 45 0c             	mov    0xc(%ebp),%eax
 1dd:	89 d7                	mov    %edx,%edi
 1df:	fc                   	cld    
 1e0:	f3 aa                	rep stos %al,%es:(%edi)
  stosb(dst, c, n);
  return dst;
}
 1e2:	89 d0                	mov    %edx,%eax
 1e4:	5f                   	pop    %edi
 1e5:	5d                   	pop    %ebp
 1e6:	c3                   	ret    
 1e7:	89 f6                	mov    %esi,%esi
 1e9:	8d bc 27 00 00 00 00 	lea    0x0(%edi,%eiz,1),%edi

000001f0 <strchr>:

char*
strchr(const char *s, char c)
{
 1f0:	55                   	push   %ebp
 1f1:	89 e5                	mov    %esp,%ebp
 1f3:	53                   	push   %ebx
 1f4:	8b 45 08             	mov    0x8(%ebp),%eax
 1f7:	8b 5d 0c             	mov    0xc(%ebp),%ebx
  for(; *s; s++)
 1fa:	0f b6 10             	movzbl (%eax),%edx
 1fd:	84 d2                	test   %dl,%dl
 1ff:	74 1d                	je     21e <strchr+0x2e>
    if(*s == c)
 201:	38 d3                	cmp    %dl,%bl
 203:	89 d9                	mov    %ebx,%ecx
 205:	75 0d                	jne    214 <strchr+0x24>
 207:	eb 17                	jmp    220 <strchr+0x30>
 209:	8d b4 26 00 00 00 00 	lea    0x0(%esi,%eiz,1),%esi
 210:	38 ca                	cmp    %cl,%dl
 212:	74 0c                	je     220 <strchr+0x30>
  for(; *s; s++)
 214:	83 c0 01             	add    $0x1,%eax
 217:	0f b6 10             	movzbl (%eax),%edx
 21a:	84 d2                	test   %dl,%dl
 21c:	75 f2                	jne    210 <strchr+0x20>
      return (char*)s;
  return 0;
 21e:	31 c0                	xor    %eax,%eax
}
 220:	5b                   	pop    %ebx
 221:	5d                   	pop    %ebp
 222:	c3                   	ret    
 223:	8d b6 00 00 00 00    	lea    0x0(%esi),%esi
 229:	8d bc 27 00 00 00 00 	lea    0x0(%edi,%eiz,1),%edi

00000230 <gets>:

char*
gets(char *buf, int max)
{
 230:	55                   	push   %ebp
 231:	89 e5                	mov    %esp,%ebp
 233:	57                   	push   %edi
 234:	56                   	push   %esi
 235:	53                   	push   %ebx
  int i, cc;
  char c;

  for(i=0; i+1 < max; ){
 236:	31 f6                	xor    %esi,%esi
 238:	89 f3                	mov    %esi,%ebx
{
 23a:	83 ec 1c             	sub    $0x1c,%esp
 23d:	8b 7d 08             	mov    0x8(%ebp),%edi
  for(i=0; i+1 < max; ){
 240:	eb 2f                	jmp    271 <gets+0x41>
 242:	8d b6 00 00 00 00    	lea    0x0(%esi),%esi
    cc = read(0, &c, 1);
 248:	8d 45 e7             	lea    -0x19(%ebp),%eax
 24b:	83 ec 04             	sub    $0x4,%esp
 24e:	6a 01                	push   $0x1
 250:	50                   	push   %eax
 251:	6a 00                	push   $0x0
 253:	e8 32 01 00 00       	call   38a <read>
    if(cc < 1)
 258:	83 c4 10             	add    $0x10,%esp
 25b:	85 c0                	test   %eax,%eax
 25d:	7e 1c                	jle    27b <gets+0x4b>
      break;
    buf[i++] = c;
 25f:	0f b6 45 e7          	movzbl -0x19(%ebp),%eax
 263:	83 c7 01             	add    $0x1,%edi
 266:	88 47 ff             	mov    %al,-0x1(%edi)
    if(c == '\n' || c == '\r')
 269:	3c 0a                	cmp    $0xa,%al
 26b:	74 23                	je     290 <gets+0x60>
 26d:	3c 0d                	cmp    $0xd,%al
 26f:	74 1f                	je     290 <gets+0x60>
  for(i=0; i+1 < max; ){
 271:	83 c3 01             	add    $0x1,%ebx
 274:	3b 5d 0c             	cmp    0xc(%ebp),%ebx
 277:	89 fe                	mov    %edi,%esi
 279:	7c cd                	jl     248 <gets+0x18>
 27b:	89 f3                	mov    %esi,%ebx
      break;
  }
  buf[i] = '\0';
  return buf;
}
 27d:	8b 45 08             	mov    0x8(%ebp),%eax
  buf[i] = '\0';
 280:	c6 03 00             	movb   $0x0,(%ebx)
}
 283:	8d 65 f4             	lea    -0xc(%ebp),%esp
 286:	5b                   	pop    %ebx
 287:	5e                   	pop    %esi
 288:	5f                   	pop    %edi
 289:	5d                   	pop    %ebp
 28a:	c3                   	ret    
 28b:	90                   	nop
 28c:	8d 74 26 00          	lea    0x0(%esi,%eiz,1),%esi
 290:	8b 75 08             	mov    0x8(%ebp),%esi
 293:	8b 45 08             	mov    0x8(%ebp),%eax
 296:	01 de                	add    %ebx,%esi
 298:	89 f3                	mov    %esi,%ebx
  buf[i] = '\0';
 29a:	c6 03 00             	movb   $0x0,(%ebx)
}
 29d:	8d 65 f4             	lea    -0xc(%ebp),%esp
 2a0:	5b                   	pop    %ebx
 2a1:	5e                   	pop    %esi
 2a2:	5f                   	pop    %edi
 2a3:	5d                   	pop    %ebp
 2a4:	c3                   	ret    
 2a5:	8d 74 26 00          	lea    0x0(%esi,%eiz,1),%esi
 2a9:	8d bc 27 00 00 00 00 	lea    0x0(%edi,%eiz,1),%edi

000002b0 <stat>:

int
stat(char *n, struct stat *st)
{
 2b0:	55                   	push   %ebp
 2b1:	89 e5                	mov    %esp,%ebp
 2b3:	56                   	push   %esi
 2b4:	53                   	push   %ebx
  int fd;
  int r;

  fd = open(n, O_RDONLY);
 2b5:	83 ec 08             	sub    $0x8,%esp
 2b8:	6a 00                	push   $0x0
 2ba:	ff 75 08             	pushl  0x8(%ebp)
 2bd:	e8 f0 00 00 00       	call   3b2 <open>
  if(fd < 0)
 2c2:	83 c4 10             	add    $0x10,%esp
 2c5:	85 c0                	test   %eax,%eax
 2c7:	78 27                	js     2f0 <stat+0x40>
    return -1;
  r = fstat(fd, st);
 2c9:	83 ec 08             	sub    $0x8,%esp
 2cc:	ff 75 0c             	pushl  0xc(%ebp)
 2cf:	89 c3                	mov    %eax,%ebx
 2d1:	50                   	push   %eax
 2d2:	e8 f3 00 00 00       	call   3ca <fstat>
  close(fd);
 2d7:	89 1c 24             	mov    %ebx,(%esp)
  r = fstat(fd, st);
 2da:	89 c6                	mov    %eax,%esi
  close(fd);
 2dc:	e8 b9 00 00 00       	call   39a <close>
  return r;
 2e1:	83 c4 10             	add    $0x10,%esp
}
 2e4:	8d 65 f8             	lea    -0x8(%ebp),%esp
 2e7:	89 f0                	mov    %esi,%eax
 2e9:	5b                   	pop    %ebx
 2ea:	5e                   	pop    %esi
 2eb:	5d                   	pop    %ebp
 2ec:	c3                   	ret    
 2ed:	8d 76 00             	lea    0x0(%esi),%esi
    return -1;
 2f0:	be ff ff ff ff       	mov    $0xffffffff,%esi
 2f5:	eb ed                	jmp    2e4 <stat+0x34>
 2f7:	89 f6                	mov    %esi,%esi
 2f9:	8d bc 27 00 00 00 00 	lea    0x0(%edi,%eiz,1),%edi

00000300 <atoi>:

int
atoi(const char *s)
{
 300:	55                   	push   %ebp
 301:	89 e5                	mov    %esp,%ebp
 303:	53                   	push   %ebx
 304:	8b 4d 08             	mov    0x8(%ebp),%ecx
  int n;

  n = 0;
  while('0' <= *s && *s <= '9')
 307:	0f be 11             	movsbl (%ecx),%edx
 30a:	8d 42 d0             	lea    -0x30(%edx),%eax
 30d:	3c 09                	cmp    $0x9,%al
  n = 0;
 30f:	b8 00 00 00 00       	mov    $0x0,%eax
  while('0' <= *s && *s <= '9')
 314:	77 1f                	ja     335 <atoi+0x35>
 316:	8d 76 00             	lea    0x0(%esi),%esi
 319:	8d bc 27 00 00 00 00 	lea    0x0(%edi,%eiz,1),%edi
    n = n*10 + *s++ - '0';
 320:	8d 04 80             	lea    (%eax,%eax,4),%eax
 323:	83 c1 01             	add    $0x1,%ecx
 326:	8d 44 42 d0          	lea    -0x30(%edx,%eax,2),%eax
  while('0' <= *s && *s <= '9')
 32a:	0f be 11             	movsbl (%ecx),%edx
 32d:	8d 5a d0             	lea    -0x30(%edx),%ebx
 330:	80 fb 09             	cmp    $0x9,%bl
 333:	76 eb                	jbe    320 <atoi+0x20>
  return n;
}
 335:	5b                   	pop    %ebx
 336:	5d                   	pop    %ebp
 337:	c3                   	ret    
 338:	90                   	nop
 339:	8d b4 26 00 00 00 00 	lea    0x0(%esi,%eiz,1),%esi

00000340 <memmove>:

void*
memmove(void *vdst, void *vsrc, int n)
{
 340:	55                   	push   %ebp
 341:	89 e5                	mov    %esp,%ebp
 343:	56                   	push   %esi
 344:	53                   	push   %ebx
 345:	8b 5d 10             	mov    0x10(%ebp),%ebx
 348:	8b 45 08             	mov    0x8(%ebp),%eax
 34b:	8b 75 0c             	mov    0xc(%ebp),%esi
  char *dst, *src;

  dst = vdst;
  src = vsrc;
  while(n-- > 0)
 34e:	85 db                	test   %ebx,%ebx
 350:	7e 14                	jle    366 <memmove+0x26>
 352:	31 d2                	xor    %edx,%edx
 354:	8d 74 26 00          	lea    0x0(%esi,%eiz,1),%esi
    *dst++ = *src++;
 358:	0f b6 0c 16          	movzbl (%esi,%edx,1),%ecx
 35c:	88 0c 10             	mov    %cl,(%eax,%edx,1)
 35f:	83 c2 01             	add    $0x1,%edx
  while(n-- > 0)
 362:	39 d3                	cmp    %edx,%ebx
 364:	75 f2                	jne    358 <memmove+0x18>
  return vdst;
}
 366:	5b                   	pop    %ebx
 367:	5e                   	pop    %esi
 368:	5d                   	pop    %ebp
 369:	c3                   	ret    

0000036a <fork>:
  name: \
    movl $SYS_ ## name, %eax; \
    int $T_SYSCALL; \
    ret

SYSCALL(fork)
 36a:	b8 01 00 00 00       	mov    $0x1,%eax
 36f:	cd 40                	int    $0x40
 371:	c3                   	ret    

00000372 <exit>:
SYSCALL(exit)
 372:	b8 02 00 00 00       	mov    $0x2,%eax
 377:	cd 40                	int    $0x40
 379:	c3                   	ret    

0000037a <wait>:
SYSCALL(wait)
 37a:	b8 03 00 00 00       	mov    $0x3,%eax
 37f:	cd 40                	int    $0x40
 381:	c3                   	ret    

00000382 <pipe>:
SYSCALL(pipe)
 382:	b8 04 00 00 00       	mov    $0x4,%eax
 387:	cd 40                	int    $0x40
 389:	c3                   	ret    

0000038a <read>:
SYSCALL(read)
 38a:	b8 05 00 00 00       	mov    $0x5,%eax
 38f:	cd 40                	int    $0x40
 391:	c3                   	ret    

00000392 <write>:
SYSCALL(write)
 392:	b8 10 00 00 00       	mov    $0x10,%eax
 397:	cd 40                	int    $0x40
 399:	c3                   	ret    

0000039a <close>:
SYSCALL(close)
 39a:	b8 15 00 00 00       	mov    $0x15,%eax
 39f:	cd 40                	int    $0x40
 3a1:	c3                   	ret    

000003a2 <kill>:
SYSCALL(kill)
 3a2:	b8 06 00 00 00       	mov    $0x6,%eax
 3a7:	cd 40                	int    $0x40
 3a9:	c3                   	ret    

000003aa <exec>:
SYSCALL(exec)
 3aa:	b8 07 00 00 00       	mov    $0x7,%eax
 3af:	cd 40                	int    $0x40
 3b1:	c3                   	ret    

000003b2 <open>:
SYSCALL(open)
 3b2:	b8 0f 00 00 00       	mov    $0xf,%eax
 3b7:	cd 40                	int    $0x40
 3b9:	c3                   	ret    

000003ba <mknod>:
SYSCALL(mknod)
 3ba:	b8 11 00 00 00       	mov    $0x11,%eax
 3bf:	cd 40                	int    $0x40
 3c1:	c3                   	ret    

000003c2 <unlink>:
SYSCALL(unlink)
 3c2:	b8 12 00 00 00       	mov    $0x12,%eax
 3c7:	cd 40                	int    $0x40
 3c9:	c3                   	ret    

000003ca <fstat>:
SYSCALL(fstat)
 3ca:	b8 08 00 00 00       	mov    $0x8,%eax
 3cf:	cd 40                	int    $0x40
 3d1:	c3                   	ret    

000003d2 <link>:
SYSCALL(link)
 3d2:	b8 13 00 00 00       	mov    $0x13,%eax
 3d7:	cd 40                	int    $0x40
 3d9:	c3                   	ret    

000003da <mkdir>:
SYSCALL(mkdir)
 3da:	b8 14 00 00 00       	mov    $0x14,%eax
 3df:	cd 40                	int    $0x40
 3e1:	c3                   	ret    

000003e2 <chdir>:
SYSCALL(chdir)
 3e2:	b8 09 00 00 00       	mov    $0x9,%eax
 3e7:	cd 40                	int    $0x40
 3e9:	c3                   	ret    

000003ea <dup>:
SYSCALL(dup)
 3ea:	b8 0a 00 00 00       	mov    $0xa,%eax
 3ef:	cd 40                	int    $0x40
 3f1:	c3                   	ret    

000003f2 <getpid>:
SYSCALL(getpid)
 3f2:	b8 0b 00 00 00       	mov    $0xb,%eax
 3f7:	cd 40                	int    $0x40
 3f9:	c3                   	ret    

000003fa <sbrk>:
SYSCALL(sbrk)
 3fa:	b8 0c 00 00 00       	mov    $0xc,%eax
 3ff:	cd 40                	int    $0x40
 401:	c3                   	ret    

00000402 <sleep>:
SYSCALL(sleep)
 402:	b8 0d 00 00 00       	mov    $0xd,%eax
 407:	cd 40                	int    $0x40
 409:	c3                   	ret    

0000040a <uptime>:
SYSCALL(uptime)
 40a:	b8 0e 00 00 00       	mov    $0xe,%eax
 40f:	cd 40                	int    $0x40
 411:	c3                   	ret    

00000412 <protectPage>:
SYSCALL(protectPage)
 412:	b8 17 00 00 00       	mov    $0x17,%eax
 417:	cd 40                	int    $0x40
 419:	c3                   	ret    
 41a:	66 90                	xchg   %ax,%ax
 41c:	66 90                	xchg   %ax,%ax
 41e:	66 90                	xchg   %ax,%ax

00000420 <printint>:
  write(fd, &c, 1);
}

static void
printint(int fd, int xx, int base, int sgn)
{
 420:	55                   	push   %ebp
 421:	89 e5                	mov    %esp,%ebp
 423:	57                   	push   %edi
 424:	56                   	push   %esi
 425:	53                   	push   %ebx
 426:	83 ec 3c             	sub    $0x3c,%esp
  char buf[16];
  int i, neg;
  uint x;

  neg = 0;
  if(sgn && xx < 0){
 429:	85 d2                	test   %edx,%edx
{
 42b:	89 45 c0             	mov    %eax,-0x40(%ebp)
    neg = 1;
    x = -xx;
 42e:	89 d0                	mov    %edx,%eax
  if(sgn && xx < 0){
 430:	79 76                	jns    4a8 <printint+0x88>
 432:	f6 45 08 01          	testb  $0x1,0x8(%ebp)
 436:	74 70                	je     4a8 <printint+0x88>
    x = -xx;
 438:	f7 d8                	neg    %eax
    neg = 1;
 43a:	c7 45 c4 01 00 00 00 	movl   $0x1,-0x3c(%ebp)
  } else {
    x = xx;
  }

  i = 0;
 441:	31 f6                	xor    %esi,%esi
 443:	8d 5d d7             	lea    -0x29(%ebp),%ebx
 446:	eb 0a                	jmp    452 <printint+0x32>
 448:	90                   	nop
 449:	8d b4 26 00 00 00 00 	lea    0x0(%esi,%eiz,1),%esi
  do{
    buf[i++] = digits[x % base];
 450:	89 fe                	mov    %edi,%esi
 452:	31 d2                	xor    %edx,%edx
 454:	8d 7e 01             	lea    0x1(%esi),%edi
 457:	f7 f1                	div    %ecx
 459:	0f b6 92 80 09 00 00 	movzbl 0x980(%edx),%edx
  }while((x /= base) != 0);
 460:	85 c0                	test   %eax,%eax
    buf[i++] = digits[x % base];
 462:	88 14 3b             	mov    %dl,(%ebx,%edi,1)
  }while((x /= base) != 0);
 465:	75 e9                	jne    450 <printint+0x30>
  if(neg)
 467:	8b 45 c4             	mov    -0x3c(%ebp),%eax
 46a:	85 c0                	test   %eax,%eax
 46c:	74 08                	je     476 <printint+0x56>
    buf[i++] = '-';
 46e:	c6 44 3d d8 2d       	movb   $0x2d,-0x28(%ebp,%edi,1)
 473:	8d 7e 02             	lea    0x2(%esi),%edi
 476:	8d 74 3d d7          	lea    -0x29(%ebp,%edi,1),%esi
 47a:	8b 7d c0             	mov    -0x40(%ebp),%edi
 47d:	8d 76 00             	lea    0x0(%esi),%esi
 480:	0f b6 06             	movzbl (%esi),%eax
  write(fd, &c, 1);
 483:	83 ec 04             	sub    $0x4,%esp
 486:	83 ee 01             	sub    $0x1,%esi
 489:	6a 01                	push   $0x1
 48b:	53                   	push   %ebx
 48c:	57                   	push   %edi
 48d:	88 45 d7             	mov    %al,-0x29(%ebp)
 490:	e8 fd fe ff ff       	call   392 <write>

  while(--i >= 0)
 495:	83 c4 10             	add    $0x10,%esp
 498:	39 de                	cmp    %ebx,%esi
 49a:	75 e4                	jne    480 <printint+0x60>
    putc(fd, buf[i]);
}
 49c:	8d 65 f4             	lea    -0xc(%ebp),%esp
 49f:	5b                   	pop    %ebx
 4a0:	5e                   	pop    %esi
 4a1:	5f                   	pop    %edi
 4a2:	5d                   	pop    %ebp
 4a3:	c3                   	ret    
 4a4:	8d 74 26 00          	lea    0x0(%esi,%eiz,1),%esi
  neg = 0;
 4a8:	c7 45 c4 00 00 00 00 	movl   $0x0,-0x3c(%ebp)
 4af:	eb 90                	jmp    441 <printint+0x21>
 4b1:	eb 0d                	jmp    4c0 <printf>
 4b3:	90                   	nop
 4b4:	90                   	nop
 4b5:	90                   	nop
 4b6:	90                   	nop
 4b7:	90                   	nop
 4b8:	90                   	nop
 4b9:	90                   	nop
 4ba:	90                   	nop
 4bb:	90                   	nop
 4bc:	90                   	nop
 4bd:	90                   	nop
 4be:	90                   	nop
 4bf:	90                   	nop

000004c0 <printf>:

// Print to the given fd. Only understands %d, %x, %p, %s.
void
printf(int fd, char *fmt, ...)
{
 4c0:	55                   	push   %ebp
 4c1:	89 e5                	mov    %esp,%ebp
 4c3:	57                   	push   %edi
 4c4:	56                   	push   %esi
 4c5:	53                   	push   %ebx
 4c6:	83 ec 2c             	sub    $0x2c,%esp
  int c, i, state;
  uint *ap;

  state = 0;
  ap = (uint*)(void*)&fmt + 1;
  for(i = 0; fmt[i]; i++){
 4c9:	8b 75 0c             	mov    0xc(%ebp),%esi
 4cc:	0f b6 1e             	movzbl (%esi),%ebx
 4cf:	84 db                	test   %bl,%bl
 4d1:	0f 84 b3 00 00 00    	je     58a <printf+0xca>
  ap = (uint*)(void*)&fmt + 1;
 4d7:	8d 45 10             	lea    0x10(%ebp),%eax
 4da:	83 c6 01             	add    $0x1,%esi
  state = 0;
 4dd:	31 ff                	xor    %edi,%edi
  ap = (uint*)(void*)&fmt + 1;
 4df:	89 45 d4             	mov    %eax,-0x2c(%ebp)
 4e2:	eb 2f                	jmp    513 <printf+0x53>
 4e4:	8d 74 26 00          	lea    0x0(%esi,%eiz,1),%esi
    c = fmt[i] & 0xff;
    if(state == 0){
      if(c == '%'){
 4e8:	83 f8 25             	cmp    $0x25,%eax
 4eb:	0f 84 a7 00 00 00    	je     598 <printf+0xd8>
  write(fd, &c, 1);
 4f1:	8d 45 e2             	lea    -0x1e(%ebp),%eax
 4f4:	83 ec 04             	sub    $0x4,%esp
 4f7:	88 5d e2             	mov    %bl,-0x1e(%ebp)
 4fa:	6a 01                	push   $0x1
 4fc:	50                   	push   %eax
 4fd:	ff 75 08             	pushl  0x8(%ebp)
 500:	e8 8d fe ff ff       	call   392 <write>
 505:	83 c4 10             	add    $0x10,%esp
 508:	83 c6 01             	add    $0x1,%esi
  for(i = 0; fmt[i]; i++){
 50b:	0f b6 5e ff          	movzbl -0x1(%esi),%ebx
 50f:	84 db                	test   %bl,%bl
 511:	74 77                	je     58a <printf+0xca>
    if(state == 0){
 513:	85 ff                	test   %edi,%edi
    c = fmt[i] & 0xff;
 515:	0f be cb             	movsbl %bl,%ecx
 518:	0f b6 c3             	movzbl %bl,%eax
    if(state == 0){
 51b:	74 cb                	je     4e8 <printf+0x28>
        state = '%';
      } else {
        putc(fd, c);
      }
    } else if(state == '%'){
 51d:	83 ff 25             	cmp    $0x25,%edi
 520:	75 e6                	jne    508 <printf+0x48>
      if(c == 'd'){
 522:	83 f8 64             	cmp    $0x64,%eax
 525:	0f 84 05 01 00 00    	je     630 <printf+0x170>
        printint(fd, *ap, 10, 1);
        ap++;
      } else if(c == 'x' || c == 'p'){
 52b:	81 e1 f7 00 00 00    	and    $0xf7,%ecx
 531:	83 f9 70             	cmp    $0x70,%ecx
 534:	74 72                	je     5a8 <printf+0xe8>
        printint(fd, *ap, 16, 0);
        ap++;
      } else if(c == 's'){
 536:	83 f8 73             	cmp    $0x73,%eax
 539:	0f 84 99 00 00 00    	je     5d8 <printf+0x118>
          s = "(null)";
        while(*s != 0){
          putc(fd, *s);
          s++;
        }
      } else if(c == 'c'){
 53f:	83 f8 63             	cmp    $0x63,%eax
 542:	0f 84 08 01 00 00    	je     650 <printf+0x190>
        putc(fd, *ap);
        ap++;
      } else if(c == '%'){
 548:	83 f8 25             	cmp    $0x25,%eax
 54b:	0f 84 ef 00 00 00    	je     640 <printf+0x180>
  write(fd, &c, 1);
 551:	8d 45 e7             	lea    -0x19(%ebp),%eax
 554:	83 ec 04             	sub    $0x4,%esp
 557:	c6 45 e7 25          	movb   $0x25,-0x19(%ebp)
 55b:	6a 01                	push   $0x1
 55d:	50                   	push   %eax
 55e:	ff 75 08             	pushl  0x8(%ebp)
 561:	e8 2c fe ff ff       	call   392 <write>
 566:	83 c4 0c             	add    $0xc,%esp
 569:	8d 45 e6             	lea    -0x1a(%ebp),%eax
 56c:	88 5d e6             	mov    %bl,-0x1a(%ebp)
 56f:	6a 01                	push   $0x1
 571:	50                   	push   %eax
 572:	ff 75 08             	pushl  0x8(%ebp)
 575:	83 c6 01             	add    $0x1,%esi
      } else {
        // Unknown % sequence.  Print it to draw attention.
        putc(fd, '%');
        putc(fd, c);
      }
      state = 0;
 578:	31 ff                	xor    %edi,%edi
  write(fd, &c, 1);
 57a:	e8 13 fe ff ff       	call   392 <write>
  for(i = 0; fmt[i]; i++){
 57f:	0f b6 5e ff          	movzbl -0x1(%esi),%ebx
  write(fd, &c, 1);
 583:	83 c4 10             	add    $0x10,%esp
  for(i = 0; fmt[i]; i++){
 586:	84 db                	test   %bl,%bl
 588:	75 89                	jne    513 <printf+0x53>
    }
  }
}
 58a:	8d 65 f4             	lea    -0xc(%ebp),%esp
 58d:	5b                   	pop    %ebx
 58e:	5e                   	pop    %esi
 58f:	5f                   	pop    %edi
 590:	5d                   	pop    %ebp
 591:	c3                   	ret    
 592:	8d b6 00 00 00 00    	lea    0x0(%esi),%esi
        state = '%';
 598:	bf 25 00 00 00       	mov    $0x25,%edi
 59d:	e9 66 ff ff ff       	jmp    508 <printf+0x48>
 5a2:	8d b6 00 00 00 00    	lea    0x0(%esi),%esi
        printint(fd, *ap, 16, 0);
 5a8:	83 ec 0c             	sub    $0xc,%esp
 5ab:	b9 10 00 00 00       	mov    $0x10,%ecx
 5b0:	6a 00                	push   $0x0
 5b2:	8b 7d d4             	mov    -0x2c(%ebp),%edi
 5b5:	8b 45 08             	mov    0x8(%ebp),%eax
 5b8:	8b 17                	mov    (%edi),%edx
 5ba:	e8 61 fe ff ff       	call   420 <printint>
        ap++;
 5bf:	89 f8                	mov    %edi,%eax
 5c1:	83 c4 10             	add    $0x10,%esp
      state = 0;
 5c4:	31 ff                	xor    %edi,%edi
        ap++;
 5c6:	83 c0 04             	add    $0x4,%eax
 5c9:	89 45 d4             	mov    %eax,-0x2c(%ebp)
 5cc:	e9 37 ff ff ff       	jmp    508 <printf+0x48>
 5d1:	8d b4 26 00 00 00 00 	lea    0x0(%esi,%eiz,1),%esi
        s = (char*)*ap;
 5d8:	8b 45 d4             	mov    -0x2c(%ebp),%eax
 5db:	8b 08                	mov    (%eax),%ecx
        ap++;
 5dd:	83 c0 04             	add    $0x4,%eax
 5e0:	89 45 d4             	mov    %eax,-0x2c(%ebp)
        if(s == 0)
 5e3:	85 c9                	test   %ecx,%ecx
 5e5:	0f 84 8e 00 00 00    	je     679 <printf+0x1b9>
        while(*s != 0){
 5eb:	0f b6 01             	movzbl (%ecx),%eax
      state = 0;
 5ee:	31 ff                	xor    %edi,%edi
        s = (char*)*ap;
 5f0:	89 cb                	mov    %ecx,%ebx
        while(*s != 0){
 5f2:	84 c0                	test   %al,%al
 5f4:	0f 84 0e ff ff ff    	je     508 <printf+0x48>
 5fa:	89 75 d0             	mov    %esi,-0x30(%ebp)
 5fd:	89 de                	mov    %ebx,%esi
 5ff:	8b 5d 08             	mov    0x8(%ebp),%ebx
 602:	8d 7d e3             	lea    -0x1d(%ebp),%edi
 605:	8d 76 00             	lea    0x0(%esi),%esi
  write(fd, &c, 1);
 608:	83 ec 04             	sub    $0x4,%esp
          s++;
 60b:	83 c6 01             	add    $0x1,%esi
 60e:	88 45 e3             	mov    %al,-0x1d(%ebp)
  write(fd, &c, 1);
 611:	6a 01                	push   $0x1
 613:	57                   	push   %edi
 614:	53                   	push   %ebx
 615:	e8 78 fd ff ff       	call   392 <write>
        while(*s != 0){
 61a:	0f b6 06             	movzbl (%esi),%eax
 61d:	83 c4 10             	add    $0x10,%esp
 620:	84 c0                	test   %al,%al
 622:	75 e4                	jne    608 <printf+0x148>
 624:	8b 75 d0             	mov    -0x30(%ebp),%esi
      state = 0;
 627:	31 ff                	xor    %edi,%edi
 629:	e9 da fe ff ff       	jmp    508 <printf+0x48>
 62e:	66 90                	xchg   %ax,%ax
        printint(fd, *ap, 10, 1);
 630:	83 ec 0c             	sub    $0xc,%esp
 633:	b9 0a 00 00 00       	mov    $0xa,%ecx
 638:	6a 01                	push   $0x1
 63a:	e9 73 ff ff ff       	jmp    5b2 <printf+0xf2>
 63f:	90                   	nop
  write(fd, &c, 1);
 640:	83 ec 04             	sub    $0x4,%esp
 643:	88 5d e5             	mov    %bl,-0x1b(%ebp)
 646:	8d 45 e5             	lea    -0x1b(%ebp),%eax
 649:	6a 01                	push   $0x1
 64b:	e9 21 ff ff ff       	jmp    571 <printf+0xb1>
        putc(fd, *ap);
 650:	8b 7d d4             	mov    -0x2c(%ebp),%edi
  write(fd, &c, 1);
 653:	83 ec 04             	sub    $0x4,%esp
        putc(fd, *ap);
 656:	8b 07                	mov    (%edi),%eax
  write(fd, &c, 1);
 658:	6a 01                	push   $0x1
        ap++;
 65a:	83 c7 04             	add    $0x4,%edi
        putc(fd, *ap);
 65d:	88 45 e4             	mov    %al,-0x1c(%ebp)
  write(fd, &c, 1);
 660:	8d 45 e4             	lea    -0x1c(%ebp),%eax
 663:	50                   	push   %eax
 664:	ff 75 08             	pushl  0x8(%ebp)
 667:	e8 26 fd ff ff       	call   392 <write>
        ap++;
 66c:	89 7d d4             	mov    %edi,-0x2c(%ebp)
 66f:	83 c4 10             	add    $0x10,%esp
      state = 0;
 672:	31 ff                	xor    %edi,%edi
 674:	e9 8f fe ff ff       	jmp    508 <printf+0x48>
          s = "(null)";
 679:	bb 78 09 00 00       	mov    $0x978,%ebx
        while(*s != 0){
 67e:	b8 28 00 00 00       	mov    $0x28,%eax
 683:	e9 72 ff ff ff       	jmp    5fa <printf+0x13a>
 688:	66 90                	xchg   %ax,%ax
 68a:	66 90                	xchg   %ax,%ax
 68c:	66 90                	xchg   %ax,%ax
 68e:	66 90                	xchg   %ax,%ax

00000690 <free>:
static Header *freep; // start of free list

// put block ap in free list
void
free(void *ap)
{
 690:	55                   	push   %ebp
  Header *bp, *p;

  bp = (Header*)ap - 1; // point to block header
  // It scans the free list, starting at freep, looking for the place to insert the free block.
  // This is either between two existing blocks or at one end of the list.
  for(p = freep; !(bp > p && bp < p->s.ptr); p = p->s.ptr)
 691:	a1 ec 0c 00 00       	mov    0xcec,%eax
{
 696:	89 e5                	mov    %esp,%ebp
 698:	57                   	push   %edi
 699:	56                   	push   %esi
 69a:	53                   	push   %ebx
 69b:	8b 5d 08             	mov    0x8(%ebp),%ebx
  bp = (Header*)ap - 1; // point to block header
 69e:	8d 4b f8             	lea    -0x8(%ebx),%ecx
 6a1:	8d b4 26 00 00 00 00 	lea    0x0(%esi,%eiz,1),%esi
  for(p = freep; !(bp > p && bp < p->s.ptr); p = p->s.ptr)
 6a8:	39 c8                	cmp    %ecx,%eax
 6aa:	8b 10                	mov    (%eax),%edx
 6ac:	73 32                	jae    6e0 <free+0x50>
 6ae:	39 d1                	cmp    %edx,%ecx
 6b0:	72 04                	jb     6b6 <free+0x26>
    if(p >= p->s.ptr && (bp > p || bp < p->s.ptr))
 6b2:	39 d0                	cmp    %edx,%eax
 6b4:	72 32                	jb     6e8 <free+0x58>
      break; // freed block at start or end of arena
  // In any case, if the block being freed is adjacent to either neighbor, the adjacent blocks are combined.
  if(bp + bp->s.size == p->s.ptr){ // join to upper neighbor
 6b6:	8b 73 fc             	mov    -0x4(%ebx),%esi
 6b9:	8d 3c f1             	lea    (%ecx,%esi,8),%edi
 6bc:	39 fa                	cmp    %edi,%edx
 6be:	74 30                	je     6f0 <free+0x60>
    bp->s.size += p->s.ptr->s.size;
    bp->s.ptr = p->s.ptr->s.ptr;
  } else
    bp->s.ptr = p->s.ptr;
 6c0:	89 53 f8             	mov    %edx,-0x8(%ebx)
  if(p + p->s.size == bp){ // join to lower neighbor
 6c3:	8b 50 04             	mov    0x4(%eax),%edx
 6c6:	8d 34 d0             	lea    (%eax,%edx,8),%esi
 6c9:	39 f1                	cmp    %esi,%ecx
 6cb:	74 3a                	je     707 <free+0x77>
    p->s.size += bp->s.size;
    p->s.ptr = bp->s.ptr;
  } else
    p->s.ptr = bp;
 6cd:	89 08                	mov    %ecx,(%eax)
  freep = p;
 6cf:	a3 ec 0c 00 00       	mov    %eax,0xcec
}
 6d4:	5b                   	pop    %ebx
 6d5:	5e                   	pop    %esi
 6d6:	5f                   	pop    %edi
 6d7:	5d                   	pop    %ebp
 6d8:	c3                   	ret    
 6d9:	8d b4 26 00 00 00 00 	lea    0x0(%esi,%eiz,1),%esi
    if(p >= p->s.ptr && (bp > p || bp < p->s.ptr))
 6e0:	39 d0                	cmp    %edx,%eax
 6e2:	72 04                	jb     6e8 <free+0x58>
 6e4:	39 d1                	cmp    %edx,%ecx
 6e6:	72 ce                	jb     6b6 <free+0x26>
{
 6e8:	89 d0                	mov    %edx,%eax
 6ea:	eb bc                	jmp    6a8 <free+0x18>
 6ec:	8d 74 26 00          	lea    0x0(%esi,%eiz,1),%esi
    bp->s.size += p->s.ptr->s.size;
 6f0:	03 72 04             	add    0x4(%edx),%esi
 6f3:	89 73 fc             	mov    %esi,-0x4(%ebx)
    bp->s.ptr = p->s.ptr->s.ptr;
 6f6:	8b 10                	mov    (%eax),%edx
 6f8:	8b 12                	mov    (%edx),%edx
 6fa:	89 53 f8             	mov    %edx,-0x8(%ebx)
  if(p + p->s.size == bp){ // join to lower neighbor
 6fd:	8b 50 04             	mov    0x4(%eax),%edx
 700:	8d 34 d0             	lea    (%eax,%edx,8),%esi
 703:	39 f1                	cmp    %esi,%ecx
 705:	75 c6                	jne    6cd <free+0x3d>
    p->s.size += bp->s.size;
 707:	03 53 fc             	add    -0x4(%ebx),%edx
  freep = p;
 70a:	a3 ec 0c 00 00       	mov    %eax,0xcec
    p->s.size += bp->s.size;
 70f:	89 50 04             	mov    %edx,0x4(%eax)
    p->s.ptr = bp->s.ptr;
 712:	8b 53 f8             	mov    -0x8(%ebx),%edx
 715:	89 10                	mov    %edx,(%eax)
}
 717:	5b                   	pop    %ebx
 718:	5e                   	pop    %esi
 719:	5f                   	pop    %edi
 71a:	5d                   	pop    %ebp
 71b:	c3                   	ret    
 71c:	8d 74 26 00          	lea    0x0(%esi,%eiz,1),%esi

00000720 <malloc>:
}

// general-purpose storage allocator
void*
malloc(uint nbytes)
{
 720:	55                   	push   %ebp
 721:	89 e5                	mov    %esp,%ebp
 723:	57                   	push   %edi
 724:	56                   	push   %esi
 725:	53                   	push   %ebx
 726:	83 ec 0c             	sub    $0xc,%esp
  Header *p, *prevp;
  uint nunits;

  nunits = (nbytes + sizeof(Header) - 1)/sizeof(Header) + 1;
 729:	8b 45 08             	mov    0x8(%ebp),%eax
  if((prevp = freep) == 0){ // no free list yet
 72c:	8b 15 ec 0c 00 00    	mov    0xcec,%edx
  nunits = (nbytes + sizeof(Header) - 1)/sizeof(Header) + 1;
 732:	8d 78 07             	lea    0x7(%eax),%edi
 735:	c1 ef 03             	shr    $0x3,%edi
 738:	83 c7 01             	add    $0x1,%edi
  if((prevp = freep) == 0){ // no free list yet
 73b:	85 d2                	test   %edx,%edx
 73d:	0f 84 9d 00 00 00    	je     7e0 <malloc+0xc0>
 743:	8b 02                	mov    (%edx),%eax
 745:	8b 48 04             	mov    0x4(%eax),%ecx
    base.s.ptr = freep = prevp = &base;
    base.s.size = 0;
  }
  // the free list is scanned until a big-enough block is found
  for(p = prevp->s.ptr; ; prevp = p, p = p->s.ptr){
    if(p->s.size >= nunits){
 748:	39 cf                	cmp    %ecx,%edi
 74a:	76 6c                	jbe    7b8 <malloc+0x98>
 74c:	81 ff 00 10 00 00    	cmp    $0x1000,%edi
 752:	bb 00 10 00 00       	mov    $0x1000,%ebx
 757:	0f 43 df             	cmovae %edi,%ebx
  p = sbrk(nu * sizeof(Header));
 75a:	8d 34 dd 00 00 00 00 	lea    0x0(,%ebx,8),%esi
 761:	eb 0e                	jmp    771 <malloc+0x51>
 763:	90                   	nop
 764:	8d 74 26 00          	lea    0x0(%esi,%eiz,1),%esi
  for(p = prevp->s.ptr; ; prevp = p, p = p->s.ptr){
 768:	8b 02                	mov    (%edx),%eax
    if(p->s.size >= nunits){
 76a:	8b 48 04             	mov    0x4(%eax),%ecx
 76d:	39 f9                	cmp    %edi,%ecx
 76f:	73 47                	jae    7b8 <malloc+0x98>
	  // The pointer returned by malloc points at the free space (not at the header itself)
	  // which begins one unit beyond the header.
      return (void*)(p + 1);
    }
	// If no big-enough block is found, another large chunk is obtained from the OS and linked into the free list.
    if(p == freep)
 771:	39 05 ec 0c 00 00    	cmp    %eax,0xcec
 777:	89 c2                	mov    %eax,%edx
 779:	75 ed                	jne    768 <malloc+0x48>
  p = sbrk(nu * sizeof(Header));
 77b:	83 ec 0c             	sub    $0xc,%esp
 77e:	56                   	push   %esi
 77f:	e8 76 fc ff ff       	call   3fa <sbrk>
  if(p == (char*)-1) // sbrk returns -1 if there was no space.
 784:	83 c4 10             	add    $0x10,%esp
 787:	83 f8 ff             	cmp    $0xffffffff,%eax
 78a:	74 1c                	je     7a8 <malloc+0x88>
  hp->s.size = nu;
 78c:	89 58 04             	mov    %ebx,0x4(%eax)
  free((void*)(hp + 1));
 78f:	83 ec 0c             	sub    $0xc,%esp
 792:	83 c0 08             	add    $0x8,%eax
 795:	50                   	push   %eax
 796:	e8 f5 fe ff ff       	call   690 <free>
  return freep;
 79b:	8b 15 ec 0c 00 00    	mov    0xcec,%edx
      if((p = morecore(nunits)) == 0)
 7a1:	83 c4 10             	add    $0x10,%esp
 7a4:	85 d2                	test   %edx,%edx
 7a6:	75 c0                	jne    768 <malloc+0x48>
        return 0;
  }
}
 7a8:	8d 65 f4             	lea    -0xc(%ebp),%esp
        return 0;
 7ab:	31 c0                	xor    %eax,%eax
}
 7ad:	5b                   	pop    %ebx
 7ae:	5e                   	pop    %esi
 7af:	5f                   	pop    %edi
 7b0:	5d                   	pop    %ebp
 7b1:	c3                   	ret    
 7b2:	8d b6 00 00 00 00    	lea    0x0(%esi),%esi
      if(p->s.size == nunits)
 7b8:	39 cf                	cmp    %ecx,%edi
 7ba:	74 54                	je     810 <malloc+0xf0>
        p->s.size -= nunits;
 7bc:	29 f9                	sub    %edi,%ecx
 7be:	89 48 04             	mov    %ecx,0x4(%eax)
        p += p->s.size;
 7c1:	8d 04 c8             	lea    (%eax,%ecx,8),%eax
        p->s.size = nunits;
 7c4:	89 78 04             	mov    %edi,0x4(%eax)
      freep = prevp;
 7c7:	89 15 ec 0c 00 00    	mov    %edx,0xcec
}
 7cd:	8d 65 f4             	lea    -0xc(%ebp),%esp
      return (void*)(p + 1);
 7d0:	83 c0 08             	add    $0x8,%eax
}
 7d3:	5b                   	pop    %ebx
 7d4:	5e                   	pop    %esi
 7d5:	5f                   	pop    %edi
 7d6:	5d                   	pop    %ebp
 7d7:	c3                   	ret    
 7d8:	90                   	nop
 7d9:	8d b4 26 00 00 00 00 	lea    0x0(%esi,%eiz,1),%esi
    base.s.ptr = freep = prevp = &base;
 7e0:	c7 05 ec 0c 00 00 f0 	movl   $0xcf0,0xcec
 7e7:	0c 00 00 
 7ea:	c7 05 f0 0c 00 00 f0 	movl   $0xcf0,0xcf0
 7f1:	0c 00 00 
    base.s.size = 0;
 7f4:	b8 f0 0c 00 00       	mov    $0xcf0,%eax
 7f9:	c7 05 f4 0c 00 00 00 	movl   $0x0,0xcf4
 800:	00 00 00 
 803:	e9 44 ff ff ff       	jmp    74c <malloc+0x2c>
 808:	90                   	nop
 809:	8d b4 26 00 00 00 00 	lea    0x0(%esi,%eiz,1),%esi
        prevp->s.ptr = p->s.ptr;
 810:	8b 08                	mov    (%eax),%ecx
 812:	89 0a                	mov    %ecx,(%edx)
 814:	eb b1                	jmp    7c7 <malloc+0xa7>
 816:	8d 76 00             	lea    0x0(%esi),%esi
 819:	8d bc 27 00 00 00 00 	lea    0x0(%edi,%eiz,1),%edi

00000820 <pmalloc>:
int pageSize = 4096;
int towpageSize = 8192;

// like malloc but also always allocate exactly 1 page, it will be page-aligned,
// if there is any free memory in the previously allocated page it will skip it.
void* pmalloc(){
 820:	55                   	push   %ebp
 821:	89 e5                	mov    %esp,%ebp
 823:	53                   	push   %ebx
 824:	83 ec 04             	sub    $0x4,%esp
  struct plink *pl;
  if(!plink_freep){ // empty list
 827:	8b 1d f8 0c 00 00    	mov    0xcf8,%ebx
 82d:	85 db                	test   %ebx,%ebx
 82f:	75 0d                	jne    83e <pmalloc+0x1e>
 831:	eb 5d                	jmp    890 <pmalloc+0x70>
 833:	90                   	nop
 834:	8d 74 26 00          	lea    0x0(%esi,%eiz,1),%esi
    plink_freep->isFree = 0;
    return plink_freep;
  }
  pl = plink_freep;
  while(pl->next){
    if(pl->isFree){
 838:	85 d2                	test   %edx,%edx
 83a:	75 0f                	jne    84b <pmalloc+0x2b>
 83c:	89 c3                	mov    %eax,%ebx
  while(pl->next){
 83e:	8b 03                	mov    (%ebx),%eax
 840:	8b 53 04             	mov    0x4(%ebx),%edx
 843:	85 c0                	test   %eax,%eax
 845:	75 f1                	jne    838 <pmalloc+0x18>
      pl->isFree = 0;
      return pl;
    }
    pl = pl->next;
  }
  if(pl->isFree){ // reached last link
 847:	85 d2                	test   %edx,%edx
 849:	74 15                	je     860 <pmalloc+0x40>
    pl->isFree = 0;
 84b:	c7 43 04 00 00 00 00 	movl   $0x0,0x4(%ebx)
    //printf(1, "plink=%d\n", pl->next);
    pl->next->next = 0;
    pl->next->isFree = 0;
    return pl->next;
  }
}
 852:	89 d8                	mov    %ebx,%eax
 854:	8b 5d fc             	mov    -0x4(%ebp),%ebx
 857:	c9                   	leave  
 858:	c3                   	ret    
 859:	8d b4 26 00 00 00 00 	lea    0x0(%esi,%eiz,1),%esi
    pl->next = (struct plink*)sbrk(pageSize);
 860:	83 ec 0c             	sub    $0xc,%esp
 863:	ff 35 e8 0c 00 00    	pushl  0xce8
 869:	e8 8c fb ff ff       	call   3fa <sbrk>
 86e:	89 03                	mov    %eax,(%ebx)
    pl->next->next = 0;
 870:	c7 00 00 00 00 00    	movl   $0x0,(%eax)
    return pl->next;
 876:	83 c4 10             	add    $0x10,%esp
    pl->next->isFree = 0;
 879:	8b 03                	mov    (%ebx),%eax
 87b:	c7 40 04 00 00 00 00 	movl   $0x0,0x4(%eax)
    return pl->next;
 882:	8b 1b                	mov    (%ebx),%ebx
}
 884:	89 d8                	mov    %ebx,%eax
 886:	8b 5d fc             	mov    -0x4(%ebp),%ebx
 889:	c9                   	leave  
 88a:	c3                   	ret    
 88b:	90                   	nop
 88c:	8d 74 26 00          	lea    0x0(%esi,%eiz,1),%esi
    plink_freep = (struct plink*)sbrk(pageSize);
 890:	83 ec 0c             	sub    $0xc,%esp
 893:	ff 35 e8 0c 00 00    	pushl  0xce8
 899:	e8 5c fb ff ff       	call   3fa <sbrk>
 89e:	a3 f8 0c 00 00       	mov    %eax,0xcf8
    plink_freep->next = 0;
 8a3:	c7 00 00 00 00 00    	movl   $0x0,(%eax)
    return plink_freep;
 8a9:	83 c4 10             	add    $0x10,%esp
    plink_freep->isFree = 0;
 8ac:	8b 1d f8 0c 00 00    	mov    0xcf8,%ebx
 8b2:	c7 43 04 00 00 00 00 	movl   $0x0,0x4(%ebx)
}
 8b9:	89 d8                	mov    %ebx,%eax
 8bb:	8b 5d fc             	mov    -0x4(%ebp),%ebx
 8be:	c9                   	leave  
 8bf:	c3                   	ret    

000008c0 <protect_page>:

// this function will verify that the address of the pointer has been allocated using pmalloc.
// then it will protect the page, and return 1. return –1 on failure.
int protect_page(void* ap){
 8c0:	55                   	push   %ebp
 8c1:	89 e5                	mov    %esp,%ebp
 8c3:	83 ec 08             	sub    $0x8,%esp
  struct plink *pl = plink_freep;
 8c6:	a1 f8 0c 00 00       	mov    0xcf8,%eax
int protect_page(void* ap){
 8cb:	8b 55 08             	mov    0x8(%ebp),%edx
  while(pl){
 8ce:	85 c0                	test   %eax,%eax
 8d0:	74 18                	je     8ea <protect_page+0x2a>
    if(pl == ap){
 8d2:	39 d0                	cmp    %edx,%eax
 8d4:	75 0e                	jne    8e4 <protect_page+0x24>
 8d6:	eb 20                	jmp    8f8 <protect_page+0x38>
 8d8:	90                   	nop
 8d9:	8d b4 26 00 00 00 00 	lea    0x0(%esi,%eiz,1),%esi
 8e0:	39 c2                	cmp    %eax,%edx
 8e2:	74 14                	je     8f8 <protect_page+0x38>
      protectPage(pl);
      return 1;
    }
    pl = pl->next;
 8e4:	8b 00                	mov    (%eax),%eax
  while(pl){
 8e6:	85 c0                	test   %eax,%eax
 8e8:	75 f6                	jne    8e0 <protect_page+0x20>
  }
	return -1;
 8ea:	b8 ff ff ff ff       	mov    $0xffffffff,%eax
}
 8ef:	c9                   	leave  
 8f0:	c3                   	ret    
 8f1:	8d b4 26 00 00 00 00 	lea    0x0(%esi,%eiz,1),%esi
      protectPage(pl);
 8f8:	83 ec 0c             	sub    $0xc,%esp
 8fb:	52                   	push   %edx
 8fc:	e8 11 fb ff ff       	call   412 <protectPage>
      return 1;
 901:	83 c4 10             	add    $0x10,%esp
 904:	b8 01 00 00 00       	mov    $0x1,%eax
}
 909:	c9                   	leave  
 90a:	c3                   	ret    
 90b:	90                   	nop
 90c:	8d 74 26 00          	lea    0x0(%esi,%eiz,1),%esi

00000910 <pfree>:

// this function will attempt to release a protected page that pointed at the argument.
// return –1 on failure, 1 on success.
int pfree(void* ap){
  struct plink *pl = plink_freep;
 910:	a1 f8 0c 00 00       	mov    0xcf8,%eax
int pfree(void* ap){
 915:	55                   	push   %ebp
 916:	89 e5                	mov    %esp,%ebp
  while(pl){
 918:	85 c0                	test   %eax,%eax
int pfree(void* ap){
 91a:	8b 55 08             	mov    0x8(%ebp),%edx
  while(pl){
 91d:	74 13                	je     932 <pfree+0x22>
    if(pl == ap){
 91f:	39 d0                	cmp    %edx,%eax
 921:	75 09                	jne    92c <pfree+0x1c>
 923:	eb 1b                	jmp    940 <pfree+0x30>
 925:	8d 76 00             	lea    0x0(%esi),%esi
 928:	39 c2                	cmp    %eax,%edx
 92a:	74 14                	je     940 <pfree+0x30>
      pl->isFree = 1;
      return 1;
    }
    pl = pl->next;
 92c:	8b 00                	mov    (%eax),%eax
  while(pl){
 92e:	85 c0                	test   %eax,%eax
 930:	75 f6                	jne    928 <pfree+0x18>
  }
	return -1;
 932:	b8 ff ff ff ff       	mov    $0xffffffff,%eax
}
 937:	5d                   	pop    %ebp
 938:	c3                   	ret    
 939:	8d b4 26 00 00 00 00 	lea    0x0(%esi,%eiz,1),%esi
      pl->isFree = 1;
 940:	c7 42 04 01 00 00 00 	movl   $0x1,0x4(%edx)
      return 1;
 947:	b8 01 00 00 00       	mov    $0x1,%eax
}
 94c:	5d                   	pop    %ebp
 94d:	c3                   	ret    
